target datalayout = "e-m:e-p270:32:32-p271:32:32-p272:64:64-i64:64-i128:128-f80:128-n8:16:32:64-S128"
target triple = "x86_64-pc-linux-gnu"

%"class.icu_77::UnicodeString" = type { %"class.icu_77::Replaceable", %"union.icu_77::UnicodeString::StackBufferOrFields" }
%"class.icu_77::Replaceable" = type { %"class.icu_77::UObject" }
%"class.icu_77::UObject" = type { ptr }
%"union.icu_77::UnicodeString::StackBufferOrFields" = type { %struct.anon.0, [32 x i8] }
%struct.anon.0 = type { i16, i32, i32, ptr }
%"class.icu_77::CollationDataBuilder" = type { %"class.icu_77::UObject", ptr, ptr, ptr, ptr, %"class.icu_77::UVector32", %"class.icu_77::UVector64", %"class.icu_77::UVector", %"class.icu_77::UnicodeSet", %"class.icu_77::UnicodeString", i32, [4 x i8], %"class.icu_77::UnicodeSet", i8, i8, i8, ptr, ptr }
%"class.icu_77::UVector32" = type { %"class.icu_77::UObject", i32, i32, i32, ptr }
%"class.icu_77::UVector64" = type { %"class.icu_77::UObject", i32, i32, i32, ptr }
%"class.icu_77::UVector" = type { %"class.icu_77::UObject", i32, i32, ptr, ptr, ptr }
%"class.icu_77::UnicodeSet" = type <{ %"class.icu_77::UnicodeFilter", ptr, i32, i32, i8, [7 x i8], ptr, ptr, i32, [4 x i8], ptr, i32, [4 x i8], ptr, ptr, [25 x i32], [4 x i8] }>
%"class.icu_77::UnicodeFilter" = type { %"class.icu_77::UnicodeFunctor", %"class.icu_77::UnicodeMatcher" }
%"class.icu_77::UnicodeFunctor" = type { %"class.icu_77::UObject" }
%"class.icu_77::UnicodeMatcher" = type { ptr }

; Function Attrs: inlinehint mustprogress uwtable
define linkonce_odr noundef signext i8 @_ZN6icu_779UVector3214ensureCapacityEiR10UErrorCode(ptr noundef nonnull align 8 dereferenceable(32) %0, i32 noundef %1, ptr noundef nonnull align 4 dereferenceable(4) %2) #7 comdat align 2 {
  %4 = alloca i8, align 1
  %5 = alloca ptr, align 8
  %6 = alloca i32, align 4
  %7 = alloca ptr, align 8
  store ptr %0, ptr %5, align 8, !tbaa !104
  store i32 %1, ptr %6, align 4, !tbaa !57
  store ptr %2, ptr %7, align 8, !tbaa !8
  %8 = load ptr, ptr %5, align 8
  %9 = load i32, ptr %6, align 4, !tbaa !57
  %10 = icmp sge i32 %9, 0
  br i1 %10, label %11, label %17

11:                                               ; preds = %3
  %12 = getelementptr inbounds nuw %"class.icu_77::UVector32", ptr %8, i32 0, i32 2
  %13 = load i32, ptr %12, align 4, !tbaa !228
  %14 = load i32, ptr %6, align 4, !tbaa !57
  %15 = icmp sge i32 %13, %14
  br i1 %15, label %16, label %17

16:                                               ; preds = %11
  store i8 1, ptr %4, align 1
  br label %21

17:                                               ; preds = %11, %3
  %18 = load i32, ptr %6, align 4, !tbaa !57
  %19 = load ptr, ptr %7, align 8, !tbaa !8
  %20 = call noundef signext i8 @_ZN6icu_779UVector3214expandCapacityEiR10UErrorCode(ptr noundef nonnull align 8 dereferenceable(32) %8, i32 noundef %18, ptr noundef nonnull align 4 dereferenceable(4) %19)
  store i8 %20, ptr %4, align 1
  br label %21

21:                                               ; preds = %17, %16
  %22 = load i8, ptr %4, align 1
  ret i8 %22
}

; Function Attrs: inlinehint mustprogress uwtable
define linkonce_odr void @_ZN6icu_779UVector3210addElementEiR10UErrorCode(ptr noundef nonnull align 8 dereferenceable(32) %0, i32 noundef %1, ptr noundef nonnull align 4 dereferenceable(4) %2) #7 comdat align 2 {
  %4 = alloca ptr, align 8
  %5 = alloca i32, align 4
  %6 = alloca ptr, align 8
  store ptr %0, ptr %4, align 8, !tbaa !104
  store i32 %1, ptr %5, align 4, !tbaa !57
  store ptr %2, ptr %6, align 8, !tbaa !8
  %7 = load ptr, ptr %4, align 8
  %8 = getelementptr inbounds nuw %"class.icu_77::UVector32", ptr %7, i32 0, i32 1
  %9 = load i32, ptr %8, align 8, !tbaa !139
  %10 = add nsw i32 %9, 1
  %11 = load ptr, ptr %6, align 8, !tbaa !8
  %12 = call noundef signext i8 @_ZN6icu_779UVector3214ensureCapacityEiR10UErrorCode(ptr noundef nonnull align 8 dereferenceable(32) %7, i32 noundef %10, ptr noundef nonnull align 4 dereferenceable(4) %11)
  %13 = icmp ne i8 %12, 0
  br i1 %13, label %14, label %25

14:                                               ; preds = %3
  %15 = load i32, ptr %5, align 4, !tbaa !57
  %16 = getelementptr inbounds nuw %"class.icu_77::UVector32", ptr %7, i32 0, i32 4
  %17 = load ptr, ptr %16, align 8, !tbaa !106
  %18 = getelementptr inbounds nuw %"class.icu_77::UVector32", ptr %7, i32 0, i32 1
  %19 = load i32, ptr %18, align 8, !tbaa !139
  %20 = sext i32 %19 to i64
  %21 = getelementptr inbounds i32, ptr %17, i64 %20
  store i32 %15, ptr %21, align 4, !tbaa !57
  %22 = getelementptr inbounds nuw %"class.icu_77::UVector32", ptr %7, i32 0, i32 1
  %23 = load i32, ptr %22, align 8, !tbaa !139
  %24 = add nsw i32 %23, 1
  store i32 %24, ptr %22, align 8, !tbaa !139
  br label %25

25:                                               ; preds = %14, %3
  ret void
}

; Function Attrs: mustprogress nounwind uwtable
define linkonce_odr noundef i32 @_ZN6icu_779Collation29makeCE32FromTagIndexAndLengthEiii(i32 noundef %0, i32 noundef %1, i32 noundef %2) #1 comdat align 2 {
  %4 = alloca i32, align 4
  %5 = alloca i32, align 4
  %6 = alloca i32, align 4
  store i32 %0, ptr %4, align 4, !tbaa !57
  store i32 %1, ptr %5, align 4, !tbaa !57
  store i32 %2, ptr %6, align 4, !tbaa !57
  %7 = load i32, ptr %5, align 4, !tbaa !57
  %8 = shl i32 %7, 13
  %9 = load i32, ptr %6, align 4, !tbaa !57
  %10 = shl i32 %9, 8
  %11 = or i32 %8, %10
  %12 = or i32 %11, 192
  %13 = load i32, ptr %4, align 4, !tbaa !57
  %14 = or i32 %12, %13
  ret i32 %14
}

; Function Attrs: inlinehint mustprogress nounwind uwtable
define linkonce_odr noundef i32 @_ZNK6icu_779UVector3210elementAtiEi(ptr noundef nonnull align 8 dereferenceable(32) %0, i32 noundef %1) #3 comdat align 2 {
  %3 = alloca ptr, align 8
  %4 = alloca i32, align 4
  store ptr %0, ptr %3, align 8, !tbaa !104
  store i32 %1, ptr %4, align 4, !tbaa !57
  %5 = load ptr, ptr %3, align 8
  %6 = load i32, ptr %4, align 4, !tbaa !57
  %7 = icmp sge i32 %6, 0
  br i1 %7, label %8, label %25

8:                                                ; preds = %2
  %9 = getelementptr inbounds nuw %"class.icu_77::UVector32", ptr %5, i32 0, i32 1
  %10 = load i32, ptr %9, align 8, !tbaa !139
  %11 = icmp sgt i32 %10, 0
  br i1 %11, label %12, label %25

12:                                               ; preds = %8
  %13 = getelementptr inbounds nuw %"class.icu_77::UVector32", ptr %5, i32 0, i32 1
  %14 = load i32, ptr %13, align 8, !tbaa !139
  %15 = load i32, ptr %4, align 4, !tbaa !57
  %16 = sub nsw i32 %14, %15
  %17 = icmp sgt i32 %16, 0
  br i1 %17, label %18, label %25

18:                                               ; preds = %12
  %19 = getelementptr inbounds nuw %"class.icu_77::UVector32", ptr %5, i32 0, i32 4
  %20 = load ptr, ptr %19, align 8, !tbaa !106
  %21 = load i32, ptr %4, align 4, !tbaa !57
  %22 = sext i32 %21 to i64
  %23 = getelementptr inbounds i32, ptr %20, i64 %22
  %24 = load i32, ptr %23, align 4, !tbaa !57
  br label %26

25:                                               ; preds = %12, %8, %2
  br label %26

26:                                               ; preds = %25, %18
  %27 = phi i32 [ %24, %18 ], [ 0, %25 ]
  ret i32 %27
}

; Function Attrs: inlinehint mustprogress nounwind uwtable
define linkonce_odr noundef i32 @_ZNK6icu_779UVector324sizeEv(ptr noundef nonnull align 8 dereferenceable(32) %0) #3 comdat align 2 {
  %2 = alloca ptr, align 8
  store ptr %0, ptr %2, align 8, !tbaa !104
  %3 = load ptr, ptr %2, align 8
  %4 = getelementptr inbounds nuw %"class.icu_77::UVector32", ptr %3, i32 0, i32 1
  %5 = load i32, ptr %4, align 8, !tbaa !139
  ret i32 %5
}

; Function Attrs: inlinehint mustprogress nounwind uwtable
define internal noundef signext i8 @_ZL9U_FAILURE10UErrorCode(i32 noundef %0) #3 {
  %2 = alloca i32, align 4
  store i32 %0, ptr %2, align 4, !tbaa !97
  %3 = load i32, ptr %2, align 4, !tbaa !97
  %4 = icmp sgt i32 %3, 0
  %5 = zext i1 %4 to i8
  ret i8 %5
}

; Function Attrs: mustprogress uwtable
define noundef i32 @_ZN6icu_7720CollationDataBuilder17encodeExpansion32EPKiiR10UErrorCode(ptr noundef nonnull align 8 dereferenceable(640) %0, ptr noundef %1, i32 noundef %2, ptr noundef nonnull align 4 dereferenceable(4) %3) #4 align 2 {
  %5 = alloca i32, align 4
  %6 = alloca ptr, align 8
  %7 = alloca ptr, align 8
  %8 = alloca i32, align 4
  %9 = alloca ptr, align 8
  %10 = alloca i32, align 4
  %11 = alloca i32, align 4
  %12 = alloca i32, align 4
  %13 = alloca i32, align 4
  %14 = alloca i32, align 4
  %15 = alloca i32, align 4
  %16 = alloca i32, align 4
  store ptr %0, ptr %6, align 8, !tbaa !13
  store ptr %1, ptr %7, align 8, !tbaa !160
  store i32 %2, ptr %8, align 4, !tbaa !57
  store ptr %3, ptr %9, align 8, !tbaa !8
  %17 = load ptr, ptr %6, align 8
  %18 = load ptr, ptr %9, align 8, !tbaa !8
  %19 = load i32, ptr %18, align 4, !tbaa !97
  %20 = call noundef signext i8 @_ZL9U_FAILURE10UErrorCode(i32 noundef %19)
  %21 = icmp ne i8 %20, 0
  br i1 %21, label %22, label %23

22:                                               ; preds = %4
  store i32 0, ptr %5, align 4
  br label %112

23:                                               ; preds = %4
  call void @llvm.lifetime.start.p0(i64 4, ptr %10) #11
  %24 = load ptr, ptr %7, align 8, !tbaa !160
  %25 = getelementptr inbounds i32, ptr %24, i64 0
  %26 = load i32, ptr %25, align 4, !tbaa !57
  store i32 %26, ptr %10, align 4, !tbaa !57
  call void @llvm.lifetime.start.p0(i64 4, ptr %11) #11
  %27 = getelementptr inbounds nuw %"class.icu_77::CollationDataBuilder", ptr %17, i32 0, i32 5
  %28 = call noundef i32 @_ZNK6icu_779UVector324sizeEv(ptr noundef nonnull align 8 dereferenceable(32) %27)
  %29 = load i32, ptr %8, align 4, !tbaa !57
  %30 = sub nsw i32 %28, %29
  store i32 %30, ptr %11, align 4, !tbaa !57
  call void @llvm.lifetime.start.p0(i64 4, ptr %12) #11
  store i32 0, ptr %12, align 4, !tbaa !57
  br label %31

31:                                               ; preds = %77, %23
  %32 = load i32, ptr %12, align 4, !tbaa !57
  %33 = load i32, ptr %11, align 4, !tbaa !57
  %34 = icmp sle i32 %32, %33
  br i1 %34, label %36, label %35

35:                                               ; preds = %31
  store i32 2, ptr %13, align 4
  br label %80

36:                                               ; preds = %31
  %37 = load i32, ptr %10, align 4, !tbaa !57
  %38 = getelementptr inbounds nuw %"class.icu_77::CollationDataBuilder", ptr %17, i32 0, i32 5
  %39 = load i32, ptr %12, align 4, !tbaa !57
  %40 = call noundef i32 @_ZNK6icu_779UVector3210elementAtiEi(ptr noundef nonnull align 8 dereferenceable(32) %38, i32 noundef %39)
  %41 = icmp eq i32 %37, %40
  br i1 %41, label %42, label %76

42:                                               ; preds = %36
  %43 = load i32, ptr %12, align 4, !tbaa !57
  %44 = icmp sgt i32 %43, 524287
  br i1 %44, label %45, label %47

45:                                               ; preds = %42
  %46 = load ptr, ptr %9, align 8, !tbaa !8
  store i32 15, ptr %46, align 4, !tbaa !97
  store i32 0, ptr %5, align 4
  store i32 1, ptr %13, align 4
  br label %80

47:                                               ; preds = %42
  call void @llvm.lifetime.start.p0(i64 4, ptr %14) #11
  store i32 1, ptr %14, align 4, !tbaa !57
  br label %48

48:                                               ; preds = %70, %47
  %49 = load i32, ptr %14, align 4, !tbaa !57
  %50 = load i32, ptr %8, align 4, !tbaa !57
  %51 = icmp eq i32 %49, %50
  br i1 %51, label %52, label %56

52:                                               ; preds = %48
  %53 = load i32, ptr %12, align 4, !tbaa !57
  %54 = load i32, ptr %8, align 4, !tbaa !57
  %55 = call noundef i32 @_ZN6icu_779Collation29makeCE32FromTagIndexAndLengthEiii(i32 noundef 5, i32 noundef %53, i32 noundef %54)
  store i32 %55, ptr %5, align 4
  store i32 1, ptr %13, align 4
  br label %73

56:                                               ; preds = %48
  %57 = getelementptr inbounds nuw %"class.icu_77::CollationDataBuilder", ptr %17, i32 0, i32 5
  %58 = load i32, ptr %12, align 4, !tbaa !57
  %59 = load i32, ptr %14, align 4, !tbaa !57
  %60 = add nsw i32 %58, %59
  %61 = call noundef i32 @_ZNK6icu_779UVector3210elementAtiEi(ptr noundef nonnull align 8 dereferenceable(32) %57, i32 noundef %60)
  %62 = load ptr, ptr %7, align 8, !tbaa !160
  %63 = load i32, ptr %14, align 4, !tbaa !57
  %64 = sext i32 %63 to i64
  %65 = getelementptr inbounds i32, ptr %62, i64 %64
  %66 = load i32, ptr %65, align 4, !tbaa !57
  %67 = icmp ne i32 %61, %66
  br i1 %67, label %68, label %69

68:                                               ; preds = %56
  store i32 5, ptr %13, align 4
  br label %73

69:                                               ; preds = %56
  br label %70

70:                                               ; preds = %69
  %71 = load i32, ptr %14, align 4, !tbaa !57
  %72 = add nsw i32 %71, 1
  store i32 %72, ptr %14, align 4, !tbaa !57
  br label %48, !llvm.loop !164

73:                                               ; preds = %68, %52
  call void @llvm.lifetime.end.p0(i64 4, ptr %14) #11
  %74 = load i32, ptr %13, align 4
  switch i32 %74, label %80 [
    i32 5, label %75
  ]

75:                                               ; preds = %73
  br label %76

76:                                               ; preds = %75, %36
  br label %77

77:                                               ; preds = %76
  %78 = load i32, ptr %12, align 4, !tbaa !57
  %79 = add nsw i32 %78, 1
  store i32 %79, ptr %12, align 4, !tbaa !57
  br label %31, !llvm.loop !165

80:                                               ; preds = %73, %45, %35
  call void @llvm.lifetime.end.p0(i64 4, ptr %12) #11
  %81 = load i32, ptr %13, align 4
  switch i32 %81, label %111 [
    i32 2, label %82
  ]

82:                                               ; preds = %80
  call void @llvm.lifetime.start.p0(i64 4, ptr %15) #11
  %83 = getelementptr inbounds nuw %"class.icu_77::CollationDataBuilder", ptr %17, i32 0, i32 5
  %84 = call noundef i32 @_ZNK6icu_779UVector324sizeEv(ptr noundef nonnull align 8 dereferenceable(32) %83)
  store i32 %84, ptr %15, align 4, !tbaa !57
  %85 = load i32, ptr %15, align 4, !tbaa !57
  %86 = icmp sgt i32 %85, 524287
  br i1 %86, label %87, label %89

87:                                               ; preds = %82
  %88 = load ptr, ptr %9, align 8, !tbaa !8
  store i32 15, ptr %88, align 4, !tbaa !97
  store i32 0, ptr %5, align 4
  store i32 1, ptr %13, align 4
  br label %110

89:                                               ; preds = %82
  call void @llvm.lifetime.start.p0(i64 4, ptr %16) #11
  store i32 0, ptr %16, align 4, !tbaa !57
  br label %90

90:                                               ; preds = %103, %89
  %91 = load i32, ptr %16, align 4, !tbaa !57
  %92 = load i32, ptr %8, align 4, !tbaa !57
  %93 = icmp slt i32 %91, %92
  br i1 %93, label %95, label %94

94:                                               ; preds = %90
  store i32 8, ptr %13, align 4
  call void @llvm.lifetime.end.p0(i64 4, ptr %16) #11
  br label %106

95:                                               ; preds = %90
  %96 = getelementptr inbounds nuw %"class.icu_77::CollationDataBuilder", ptr %17, i32 0, i32 5
  %97 = load ptr, ptr %7, align 8, !tbaa !160
  %98 = load i32, ptr %16, align 4, !tbaa !57
  %99 = sext i32 %98 to i64
  %100 = getelementptr inbounds i32, ptr %97, i64 %99
  %101 = load i32, ptr %100, align 4, !tbaa !57
  %102 = load ptr, ptr %9, align 8, !tbaa !8
  call void @_ZN6icu_779UVector3210addElementEiR10UErrorCode(ptr noundef nonnull align 8 dereferenceable(32) %96, i32 noundef %101, ptr noundef nonnull align 4 dereferenceable(4) %102)
  br label %103

103:                                              ; preds = %95
  %104 = load i32, ptr %16, align 4, !tbaa !57
  %105 = add nsw i32 %104, 1
  store i32 %105, ptr %16, align 4, !tbaa !57
  br label %90, !llvm.loop !166

106:                                              ; preds = %94
  %107 = load i32, ptr %15, align 4, !tbaa !57
  %108 = load i32, ptr %8, align 4, !tbaa !57
  %109 = call noundef i32 @_ZN6icu_779Collation29makeCE32FromTagIndexAndLengthEiii(i32 noundef 5, i32 noundef %107, i32 noundef %108)
  store i32 %109, ptr %5, align 4
  store i32 1, ptr %13, align 4
  br label %110

110:                                              ; preds = %106, %87
  call void @llvm.lifetime.end.p0(i64 4, ptr %15) #11
  br label %111

111:                                              ; preds = %110, %80
  call void @llvm.lifetime.end.p0(i64 4, ptr %11) #11
  call void @llvm.lifetime.end.p0(i64 4, ptr %10) #11
  br label %112

112:                                              ; preds = %111, %22
  %113 = load i32, ptr %5, align 4
  ret i32 %113
}