; Function Attrs: mustprogress uwtable
define noundef range(i32 197, 1) i32 @_ZN6icu_7720CollationDataBuilder17encodeExpansion32EPKiiR10UErrorCode(ptr noundef nonnull align 8 dereferenceable(640) %0, ptr noundef readonly captures(none) %1, i32 noundef %2, ptr noundef nonnull align 4 dereferenceable(4) %3) local_unnamed_addr #6 align 2 {
  %5 = load i32, ptr %3, align 4, !tbaa !76
  %6 = icmp slt i32 %5, 1
  br i1 %6, label %7, label %73

7:                                                ; preds = %4
  %8 = load i32, ptr %1, align 4, !tbaa !66
  %9 = getelementptr inbounds nuw i8, ptr %0, i64 40
  %10 = getelementptr inbounds nuw i8, ptr %0, i64 48
  %11 = load i32, ptr %10, align 8, !tbaa !120
  %.not4157 = icmp slt i32 %11, %2
  br i1 %.not4157, label %.thread47, label %.lr.ph60

.lr.ph60:                                         ; preds = %7
  %12 = getelementptr inbounds nuw i8, ptr %0, i64 64
  %13 = load ptr, ptr %12, align 8
  %.not4354 = icmp eq i32 %2, 1
  br i1 %.not4354, label %.lr.ph60.split.us.preheader, label %.lr.ph60.split.preheader

.lr.ph60.split.preheader:                         ; preds = %.lr.ph60
  %14 = zext i32 %2 to i64
  %15 = sext i32 %11 to i64
  %16 = add i32 %11, 1
  %17 = sub i32 %16, %2
  %wide.trip.count = zext i32 %17 to i64
  br label %.lr.ph60.split

.lr.ph60.split.us.preheader:                      ; preds = %.lr.ph60
  %18 = sext i32 %11 to i64
  %wide.trip.count75 = zext i32 %11 to i64
  br label %.lr.ph60.split.us

.lr.ph60.split.us:                                ; preds = %.lr.ph60.split.us.preheader, %27
  %indvars.iv72 = phi i64 [ 0, %.lr.ph60.split.us.preheader ], [ %indvars.iv.next73, %27 ]
  %19 = icmp slt i64 %indvars.iv72, %18
  br i1 %19, label %20, label %_ZNK6icu_779UVector3210elementAtiEi.exit.us

20:                                               ; preds = %.lr.ph60.split.us
  %21 = getelementptr inbounds nuw i32, ptr %13, i64 %indvars.iv72
  %22 = load i32, ptr %21, align 4, !tbaa !66
  br label %_ZNK6icu_779UVector3210elementAtiEi.exit.us

_ZNK6icu_779UVector3210elementAtiEi.exit.us:      ; preds = %20, %.lr.ph60.split.us
  %23 = phi i32 [ %22, %20 ], [ 0, %.lr.ph60.split.us ]
  %24 = icmp eq i32 %8, %23
  br i1 %24, label %25, label %27

25:                                               ; preds = %_ZNK6icu_779UVector3210elementAtiEi.exit.us
  %26 = icmp samesign ugt i64 %indvars.iv72, 524287
  br i1 %26, label %.thread49, label %.preheader51._crit_edge

27:                                               ; preds = %_ZNK6icu_779UVector3210elementAtiEi.exit.us
  %indvars.iv.next73 = add nuw nsw i64 %indvars.iv72, 1
  %exitcond76.not = icmp eq i64 %indvars.iv.next73, %wide.trip.count75
  br i1 %exitcond76.not, label %.thread47, label %.lr.ph60.split.us, !llvm.loop !147

.lr.ph60.split:                                   ; preds = %.lr.ph60.split.preheader, %.loopexit
  %indvars.iv69 = phi i64 [ 0, %.lr.ph60.split.preheader ], [ %indvars.iv.next70, %.loopexit ]
  %28 = icmp slt i64 %indvars.iv69, %15
  br i1 %28, label %29, label %_ZNK6icu_779UVector3210elementAtiEi.exit

29:                                               ; preds = %.lr.ph60.split
  %30 = getelementptr inbounds nuw i32, ptr %13, i64 %indvars.iv69
  %31 = load i32, ptr %30, align 4, !tbaa !66
  br label %_ZNK6icu_779UVector3210elementAtiEi.exit

_ZNK6icu_779UVector3210elementAtiEi.exit:         ; preds = %.lr.ph60.split, %29
  %32 = phi i32 [ %31, %29 ], [ 0, %.lr.ph60.split ]
  %33 = icmp eq i32 %8, %32
  br i1 %33, label %34, label %.loopexit

34:                                               ; preds = %_ZNK6icu_779UVector3210elementAtiEi.exit
  %35 = icmp samesign ugt i64 %indvars.iv69, 524287
  br i1 %35, label %.thread49, label %.preheader51

.thread49:                                        ; preds = %34, %25
  store i32 15, ptr %3, align 4, !tbaa !76
  br label %73

36:                                               ; preds = %_ZNK6icu_779UVector3210elementAtiEi.exit45
  %indvars.iv.next = add nuw nsw i64 %indvars.iv, 1
  %.not43 = icmp eq i64 %indvars.iv.next, %14
  br i1 %.not43, label %.preheader51._crit_edge, label %.preheader51, !llvm.loop !148

.preheader51:                                     ; preds = %34, %36
  %indvars.iv = phi i64 [ %indvars.iv.next, %36 ], [ 1, %34 ]
  %37 = add nuw nsw i64 %indvars.iv, %indvars.iv69
  %38 = trunc nuw i64 %37 to i32
  %39 = icmp sgt i32 %11, %38
  br i1 %39, label %40, label %_ZNK6icu_779UVector3210elementAtiEi.exit45

40:                                               ; preds = %.preheader51
  %41 = getelementptr inbounds nuw i32, ptr %13, i64 %37
  %42 = load i32, ptr %41, align 4, !tbaa !66
  br label %_ZNK6icu_779UVector3210elementAtiEi.exit45

_ZNK6icu_779UVector3210elementAtiEi.exit45:       ; preds = %.preheader51, %40
  %43 = phi i32 [ %42, %40 ], [ 0, %.preheader51 ]
  %44 = getelementptr inbounds nuw i32, ptr %1, i64 %indvars.iv
  %45 = load i32, ptr %44, align 4, !tbaa !66
  %.not42 = icmp eq i32 %43, %45
  br i1 %.not42, label %36, label %.loopexit

.loopexit:                                        ; preds = %_ZNK6icu_779UVector3210elementAtiEi.exit45, %_ZNK6icu_779UVector3210elementAtiEi.exit
  %indvars.iv.next70 = add nuw nsw i64 %indvars.iv69, 1
  %exitcond.not = icmp eq i64 %indvars.iv.next70, %wide.trip.count
  br i1 %exitcond.not, label %.thread47, label %.lr.ph60.split, !llvm.loop !147

.preheader51._crit_edge:                          ; preds = %36, %25
  %.037.lcssa53.in = phi i64 [ %indvars.iv72, %25 ], [ %indvars.iv69, %36 ]
  %.037.lcssa53 = trunc nuw i64 %.037.lcssa53.in to i32
  %46 = shl nuw i32 %.037.lcssa53, 13
  %47 = shl i32 %2, 8
  %48 = or i32 %47, %46
  %49 = or disjoint i32 %48, 197
  br label %73

.thread47:                                        ; preds = %.loopexit, %27, %7
  %50 = icmp sgt i32 %11, 524287
  br i1 %50, label %54, label %.preheader

.preheader:                                       ; preds = %.thread47
  %51 = icmp sgt i32 %2, 0
  br i1 %51, label %.lr.ph, label %._crit_edge63

.lr.ph:                                           ; preds = %.preheader
  %52 = getelementptr inbounds nuw i8, ptr %0, i64 52
  %53 = getelementptr inbounds nuw i8, ptr %0, i64 64
  %wide.trip.count80 = zext nneg i32 %2 to i64
  br label %59

54:                                               ; preds = %.thread47
  store i32 15, ptr %3, align 4, !tbaa !76
  br label %73

._crit_edge63:                                    ; preds = %_ZN6icu_779UVector3210addElementEiR10UErrorCode.exit, %.preheader
  %55 = shl i32 %11, 13
  %56 = shl i32 %2, 8
  %57 = or i32 %56, %55
  %58 = or disjoint i32 %57, 197
  br label %73

59:                                               ; preds = %.lr.ph, %_ZN6icu_779UVector3210addElementEiR10UErrorCode.exit
  %indvars.iv77 = phi i64 [ 0, %.lr.ph ], [ %indvars.iv.next78, %_ZN6icu_779UVector3210addElementEiR10UErrorCode.exit ]
  %60 = getelementptr inbounds nuw i32, ptr %1, i64 %indvars.iv77
  %61 = load i32, ptr %60, align 4, !tbaa !66
  %62 = load i32, ptr %10, align 8, !tbaa !120
  %63 = icmp slt i32 %62, -1
  %64 = load i32, ptr %52, align 4
  %.not.i.i = icmp sle i32 %64, %62
  %or.cond.i.i = select i1 %63, i1 true, i1 %.not.i.i
  br i1 %or.cond.i.i, label %_ZN6icu_779UVector3214ensureCapacityEiR10UErrorCode.exit.i, label %_ZN6icu_779UVector3214ensureCapacityEiR10UErrorCode.exit.thread.i

_ZN6icu_779UVector3214ensureCapacityEiR10UErrorCode.exit.i: ; preds = %59
  %65 = add nsw i32 %62, 1
  %66 = tail call noundef signext i8 @_ZN6icu_779UVector3214expandCapacityEiR10UErrorCode(ptr noundef nonnull align 8 dereferenceable(32) %9, i32 noundef %65, ptr noundef nonnull align 4 dereferenceable(4) %3)
  %.not.i = icmp eq i8 %66, 0
  br i1 %.not.i, label %_ZN6icu_779UVector3210addElementEiR10UErrorCode.exit, label %_ZN6icu_779UVector3214ensureCapacityEiR10UErrorCode.exit._ZN6icu_779UVector3214ensureCapacityEiR10UErrorCode.exit.thread_crit_edge.i

_ZN6icu_779UVector3214ensureCapacityEiR10UErrorCode.exit._ZN6icu_779UVector3214ensureCapacityEiR10UErrorCode.exit.thread_crit_edge.i: ; preds = %_ZN6icu_779UVector3214ensureCapacityEiR10UErrorCode.exit.i
  %.pre.i = load i32, ptr %10, align 8, !tbaa !120
  br label %_ZN6icu_779UVector3214ensureCapacityEiR10UErrorCode.exit.thread.i

_ZN6icu_779UVector3214ensureCapacityEiR10UErrorCode.exit.thread.i: ; preds = %_ZN6icu_779UVector3214ensureCapacityEiR10UErrorCode.exit._ZN6icu_779UVector3214ensureCapacityEiR10UErrorCode.exit.thread_crit_edge.i, %59
  %67 = phi i32 [ %.pre.i, %_ZN6icu_779UVector3214ensureCapacityEiR10UErrorCode.exit._ZN6icu_779UVector3214ensureCapacityEiR10UErrorCode.exit.thread_crit_edge.i ], [ %62, %59 ]
  %68 = load ptr, ptr %53, align 8, !tbaa !70
  %69 = sext i32 %67 to i64
  %70 = getelementptr inbounds i32, ptr %68, i64 %69
  store i32 %61, ptr %70, align 4, !tbaa !66
  %71 = load i32, ptr %10, align 8, !tbaa !120
  %72 = add nsw i32 %71, 1
  store i32 %72, ptr %10, align 8, !tbaa !120
  br label %_ZN6icu_779UVector3210addElementEiR10UErrorCode.exit

_ZN6icu_779UVector3210addElementEiR10UErrorCode.exit: ; preds = %_ZN6icu_779UVector3214ensureCapacityEiR10UErrorCode.exit.i, %_ZN6icu_779UVector3214ensureCapacityEiR10UErrorCode.exit.thread.i
  %indvars.iv.next78 = add nuw nsw i64 %indvars.iv77, 1
  %exitcond81.not = icmp eq i64 %indvars.iv.next78, %wide.trip.count80
  br i1 %exitcond81.not, label %._crit_edge63, label %59, !llvm.loop !149

73:                                               ; preds = %.preheader51._crit_edge, %.thread49, %._crit_edge63, %54, %4
  %.033 = phi i32 [ 0, %4 ], [ %49, %.preheader51._crit_edge ], [ 0, %54 ], [ %58, %._crit_edge63 ], [ 0, %.thread49 ]
  ret i32 %.033
}